target datalayout = "e-m:e-p270:32:32-p271:32:32-p272:64:64-i64:64-i128:128-f80:128-n8:16:32:64-S128"
target triple = "x86_64-pc-linux-gnu"

%"class.icu_77::SharedCalendar" = type { %"class.icu_77::SharedObject", ptr }
%"class.icu_77::SharedObject" = type { %"class.icu_77::UObject", i32, %"struct.std::atomic", ptr }
%"class.icu_77::UObject" = type { ptr }
%"struct.std::atomic" = type { %"struct.std::__atomic_base" }
%"struct.std::__atomic_base" = type { i32 }
%"class.icu_77::LocaleCacheKey" = type { %"class.icu_77::CacheKey.base", [3 x i8], %"class.icu_77::Locale" }
%"class.icu_77::CacheKey.base" = type { %"class.icu_77::CacheKeyBase.base" }
%"class.icu_77::CacheKeyBase.base" = type <{ %"class.icu_77::UObject", i32, i8 }>
%"class.icu_77::Locale" = type <{ %"class.icu_77::UObject", [12 x i8], [6 x i8], [4 x i8], [2 x i8], i32, [4 x i8], ptr, [157 x i8], [3 x i8], ptr, i8, [7 x i8] }>

@_ZTVN6icu_7714SharedCalendarE = unnamed_addr constant { [5 x ptr] } { [5 x ptr] [ptr null, ptr @_ZTIN6icu_7714SharedCalendarE, ptr @_ZN6icu_7714SharedCalendarD1Ev, ptr @_ZN6icu_7714SharedCalendarD0Ev, ptr @_ZNK6icu_777UObject17getDynamicClassIDEv] }, align 8
@_ZTVN6icu_7712SharedObjectE = available_externally unnamed_addr constant { [5 x ptr] } { [5 x ptr] [ptr null, ptr @_ZTIN6icu_7712SharedObjectE, ptr @_ZN6icu_7712SharedObjectD1Ev, ptr @_ZN6icu_7712SharedObjectD0Ev, ptr @_ZNK6icu_777UObject17getDynamicClassIDEv] }, align 8
@_ZTVN6icu_777UObjectE = available_externally unnamed_addr constant { [5 x ptr] } { [5 x ptr] [ptr null, ptr @_ZTIN6icu_777UObjectE, ptr @_ZN6icu_777UObjectD1Ev, ptr @_ZN6icu_777UObjectD0Ev, ptr @_ZNK6icu_777UObject17getDynamicClassIDEv] }, align 8

; Function Attrs: mustprogress nounwind uwtable
define linkonce_odr void @_ZNSt13__atomic_baseIiEC2Ei(ptr noundef nonnull align 4 dereferenceable(4) %0, i32 noundef %1) unnamed_addr #0 comdat align 2 {
  %3 = alloca ptr, align 8
  %4 = alloca i32, align 4
  store ptr %0, ptr %3, align 8, !tbaa !164
  store i32 %1, ptr %4, align 4, !tbaa !14
  %5 = load ptr, ptr %3, align 8
  %6 = getelementptr inbounds nuw %"struct.std::__atomic_base", ptr %5, i32 0, i32 0
  %7 = load i32, ptr %4, align 4, !tbaa !14
  store i32 %7, ptr %6, align 4, !tbaa !166
  ret void
}

; Function Attrs: mustprogress nounwind uwtable
define linkonce_odr void @_ZNSt6atomicIiEC2Ei(ptr noundef nonnull align 4 dereferenceable(4) %0, i32 noundef %1) unnamed_addr #0 comdat align 2 {
  %3 = alloca ptr, align 8
  %4 = alloca i32, align 4
  store ptr %0, ptr %3, align 8, !tbaa !162
  store i32 %1, ptr %4, align 4, !tbaa !14
  %5 = load ptr, ptr %3, align 8
  %6 = load i32, ptr %4, align 4, !tbaa !14
  call void @_ZNSt13__atomic_baseIiEC2Ei(ptr noundef nonnull align 4 dereferenceable(4) %5, i32 noundef %6) #16
  ret void
}

; Function Attrs: inlinehint mustprogress nounwind uwtable
define linkonce_odr void @_ZN6icu_777UObjectC2Ev(ptr noundef nonnull align 8 dereferenceable(8) %0) unnamed_addr #2 comdat align 2 {
  %2 = alloca ptr, align 8
  store ptr %0, ptr %2, align 8, !tbaa !40
  %3 = load ptr, ptr %2, align 8
  store ptr getelementptr inbounds inrange(-16, 24) ({ [5 x ptr] }, ptr @_ZTVN6icu_777UObjectE, i32 0, i32 0, i32 2), ptr %3, align 8, !tbaa !25
  ret void
}

; Function Attrs: mustprogress nounwind uwtable
define linkonce_odr void @_ZN6icu_7712SharedObjectC2Ev(ptr noundef nonnull align 8 dereferenceable(24) %0) unnamed_addr #0 comdat align 2 {
  %2 = alloca ptr, align 8
  store ptr %0, ptr %2, align 8, !tbaa !158
  %3 = load ptr, ptr %2, align 8
  call void @_ZN6icu_777UObjectC2Ev(ptr noundef nonnull align 8 dereferenceable(8) %3) #16
  store ptr getelementptr inbounds inrange(-16, 24) ({ [5 x ptr] }, ptr @_ZTVN6icu_7712SharedObjectE, i32 0, i32 0, i32 2), ptr %3, align 8, !tbaa !25
  %4 = getelementptr inbounds nuw %"class.icu_77::SharedObject", ptr %3, i32 0, i32 1
  store i32 0, ptr %4, align 8, !tbaa !160
  %5 = getelementptr inbounds nuw %"class.icu_77::SharedObject", ptr %3, i32 0, i32 2
  call void @_ZNSt6atomicIiEC2Ei(ptr noundef nonnull align 4 dereferenceable(4) %5, i32 noundef 0) #16
  %6 = getelementptr inbounds nuw %"class.icu_77::SharedObject", ptr %3, i32 0, i32 3
  store ptr null, ptr %6, align 8, !tbaa !161
  ret void
}

; Function Attrs: mustprogress uwtable
define linkonce_odr void @_ZN6icu_7714SharedCalendarC2EPNS_8CalendarE(ptr noundef nonnull align 8 dereferenceable(32) %0, ptr noundef %1) unnamed_addr #1 comdat align 2 {
  %3 = alloca ptr, align 8
  %4 = alloca ptr, align 8
  store ptr %0, ptr %3, align 8, !tbaa !23
  store ptr %1, ptr %4, align 8, !tbaa !37
  %5 = load ptr, ptr %3, align 8
  call void @_ZN6icu_7712SharedObjectC2Ev(ptr noundef nonnull align 8 dereferenceable(24) %5)
  store ptr getelementptr inbounds inrange(-16, 24) ({ [5 x ptr] }, ptr @_ZTVN6icu_7714SharedCalendarE, i32 0, i32 0, i32 2), ptr %5, align 8, !tbaa !25
  %6 = getelementptr inbounds nuw %"class.icu_77::SharedCalendar", ptr %5, i32 0, i32 1
  %7 = load ptr, ptr %4, align 8, !tbaa !37
  store ptr %7, ptr %6, align 8, !tbaa !27
  ret void
}

; Function Attrs: inlinehint mustprogress nounwind uwtable
define internal noundef signext i8 @_ZL9U_FAILURE10UErrorCode(i32 noundef %0) #2 {
  %2 = alloca i32, align 4
  store i32 %0, ptr %2, align 4, !tbaa !15
  %3 = load i32, ptr %2, align 4, !tbaa !15
  %4 = icmp sgt i32 %3, 0
  %5 = zext i1 %4 to i8
  ret i8 %5
}

; Function Attrs: mustprogress uwtable
define noundef ptr @_ZNK6icu_7714LocaleCacheKeyINS_14SharedCalendarEE12createObjectEPKvR10UErrorCode(ptr noundef nonnull align 8 dereferenceable(240) %0, ptr noundef %1, ptr noundef nonnull align 4 dereferenceable(4) %2) unnamed_addr #1 align 2 personality ptr @__gxx_personality_v0 {
  %4 = alloca ptr, align 8
  %5 = alloca ptr, align 8
  %6 = alloca ptr, align 8
  %7 = alloca ptr, align 8
  %8 = alloca ptr, align 8
  %9 = alloca i32, align 4
  %10 = alloca ptr, align 8
  %11 = alloca ptr, align 8
  %12 = alloca i1, align 1
  %13 = alloca ptr, align 8
  %14 = alloca i32, align 4
  store ptr %0, ptr %5, align 8, !tbaa !35
  store ptr %1, ptr %6, align 8, !tbaa !22
  store ptr %2, ptr %7, align 8, !tbaa !22
  %15 = load ptr, ptr %5, align 8
  %16 = load ptr, ptr %7, align 8, !tbaa !22
  %17 = load i32, ptr %16, align 4, !tbaa !15
  %18 = call noundef signext i8 @_ZL9U_FAILURE10UErrorCode(i32 noundef %17)
  %19 = icmp ne i8 %18, 0
  br i1 %19, label %20, label %21

20:                                               ; preds = %3
  store ptr null, ptr %4, align 8
  br label %62

21:                                               ; preds = %3
  call void @llvm.lifetime.start.p0(i64 8, ptr %8) #16
  %22 = getelementptr inbounds nuw %"class.icu_77::LocaleCacheKey", ptr %15, i32 0, i32 2
  %23 = load ptr, ptr %7, align 8, !tbaa !22
  %24 = call noundef ptr @_ZN6icu_778Calendar12makeInstanceERKNS_6LocaleER10UErrorCode(ptr noundef nonnull align 8 dereferenceable(217) %22, ptr noundef nonnull align 4 dereferenceable(4) %23)
  store ptr %24, ptr %8, align 8, !tbaa !37
  %25 = load ptr, ptr %7, align 8, !tbaa !22
  %26 = load i32, ptr %25, align 4, !tbaa !15
  %27 = call noundef signext i8 @_ZL9U_FAILURE10UErrorCode(i32 noundef %26)
  %28 = icmp ne i8 %27, 0
  br i1 %28, label %29, label %30

29:                                               ; preds = %21
  store ptr null, ptr %4, align 8
  store i32 1, ptr %9, align 4
  br label %61

30:                                               ; preds = %21
  call void @llvm.lifetime.start.p0(i64 8, ptr %10) #16
  %31 = call noundef ptr @_ZN6icu_777UMemorynwEm(i64 noundef 32) #16
  %32 = icmp eq ptr %31, null
  store i1 false, ptr %12, align 1
  br i1 %32, label %36, label %33

33:                                               ; preds = %30
  store ptr %31, ptr %11, align 8
  store i1 true, ptr %12, align 1
  %34 = load ptr, ptr %8, align 8, !tbaa !37
  invoke void @_ZN6icu_7714SharedCalendarC2EPNS_8CalendarE(ptr noundef nonnull align 8 dereferenceable(32) %31, ptr noundef %34)
          to label %35 unwind label %49

35:                                               ; preds = %33
  br label %36

36:                                               ; preds = %35, %30
  %37 = phi ptr [ %31, %35 ], [ null, %30 ]
  store ptr %37, ptr %10, align 8, !tbaa !23
  %38 = load ptr, ptr %10, align 8, !tbaa !23
  %39 = icmp eq ptr %38, null
  br i1 %39, label %40, label %57

40:                                               ; preds = %36
  %41 = load ptr, ptr %8, align 8, !tbaa !37
  %42 = icmp eq ptr %41, null
  br i1 %42, label %47, label %43

43:                                               ; preds = %40
  %44 = load ptr, ptr %41, align 8, !tbaa !25
  %45 = getelementptr inbounds ptr, ptr %44, i64 1
  %46 = load ptr, ptr %45, align 8
  call void %46(ptr noundef nonnull align 8 dereferenceable(192) %41) #16
  br label %47

47:                                               ; preds = %43, %40
  %48 = load ptr, ptr %7, align 8, !tbaa !22
  store i32 7, ptr %48, align 4, !tbaa !15
  store ptr null, ptr %4, align 8
  store i32 1, ptr %9, align 4
  br label %60

49:                                               ; preds = %33
  %50 = landingpad { ptr, i32 }
          cleanup
  %51 = extractvalue { ptr, i32 } %50, 0
  store ptr %51, ptr %13, align 8
  %52 = extractvalue { ptr, i32 } %50, 1
  store i32 %52, ptr %14, align 4
  %53 = load i1, ptr %12, align 1
  br i1 %53, label %54, label %56

54:                                               ; preds = %49
  %55 = load ptr, ptr %11, align 8
  call void @_ZN6icu_777UMemorydlEPv(ptr noundef %55) #16
  br label %56

56:                                               ; preds = %54, %49
  call void @llvm.lifetime.end.p0(i64 8, ptr %10) #16
  call void @llvm.lifetime.end.p0(i64 8, ptr %8) #16
  br label %64

57:                                               ; preds = %36
  %58 = load ptr, ptr %10, align 8, !tbaa !23
  call void @_ZNK6icu_7712SharedObject6addRefEv(ptr noundef nonnull align 8 dereferenceable(24) %58)
  %59 = load ptr, ptr %10, align 8, !tbaa !23
  store ptr %59, ptr %4, align 8
  store i32 1, ptr %9, align 4
  br label %60

60:                                               ; preds = %57, %47
  call void @llvm.lifetime.end.p0(i64 8, ptr %10) #16
  br label %61

61:                                               ; preds = %60, %29
  call void @llvm.lifetime.end.p0(i64 8, ptr %8) #16
  br label %62

62:                                               ; preds = %61, %20
  %63 = load ptr, ptr %4, align 8
  ret ptr %63

64:                                               ; preds = %56
  %65 = load ptr, ptr %13, align 8
  %66 = load i32, ptr %14, align 4
  %67 = insertvalue { ptr, i32 } poison, ptr %65, 0
  %68 = insertvalue { ptr, i32 } %67, i32 %66, 1
  resume { ptr, i32 } %68
}