; Function Attrs: mustprogress uwtable
define noundef ptr @_ZNK6icu_7714LocaleCacheKeyINS_14SharedCalendarEE12createObjectEPKvR10UErrorCode(ptr noundef nonnull align 8 dereferenceable(240) %0, ptr readnone captures(none) %1, ptr noundef nonnull align 4 dereferenceable(4) %2) unnamed_addr #1 align 2 personality ptr @__gxx_personality_v0 {
  %4 = load i32, ptr %2, align 4, !tbaa !13
  %5 = icmp slt i32 %4, 1
  br i1 %5, label %6, label %24

6:                                                ; preds = %3
  %7 = getelementptr inbounds nuw i8, ptr %0, i64 16
  %8 = tail call noundef ptr @_ZN6icu_778Calendar12makeInstanceERKNS_6LocaleER10UErrorCode(ptr noundef nonnull align 8 dereferenceable(217) %7, ptr noundef nonnull align 4 dereferenceable(4) %2)
  %9 = load i32, ptr %2, align 4, !tbaa !13
  %10 = icmp slt i32 %9, 1
  br i1 %10, label %11, label %24

11:                                               ; preds = %6
  %12 = tail call noundef ptr @_ZN6icu_777UMemorynwEm(i64 noundef 32) #25
  %13 = icmp eq ptr %12, null
  br i1 %13, label %14, label %21

14:                                               ; preds = %11
  %15 = icmp eq ptr %8, null
  br i1 %15, label %20, label %16

16:                                               ; preds = %14
  %17 = load ptr, ptr %8, align 8, !tbaa !15
  %18 = getelementptr inbounds nuw i8, ptr %17, i64 8
  %19 = load ptr, ptr %18, align 8
  tail call void %19(ptr noundef nonnull align 8 dereferenceable(192) %8) #25
  br label %20

20:                                               ; preds = %16, %14
  store i32 7, ptr %2, align 4, !tbaa !13
  br label %24

21:                                               ; preds = %11
  %22 = getelementptr inbounds nuw i8, ptr %12, i64 8
  tail call void @llvm.memset.p0.i64(ptr noundef nonnull align 8 dereferenceable(16) %22, i8 0, i64 16, i1 false)
  store ptr getelementptr inbounds nuw inrange(-16, 24) (i8, ptr @_ZTVN6icu_7714SharedCalendarE, i64 16), ptr %12, align 8, !tbaa !15
  %23 = getelementptr inbounds nuw i8, ptr %12, i64 24
  store ptr %8, ptr %23, align 8, !tbaa !17
  tail call void @_ZNK6icu_7712SharedObject6addRefEv(ptr noundef nonnull align 8 dereferenceable(24) %12)
  br label %24

24:                                               ; preds = %6, %21, %20, %3
  %.0 = phi ptr [ null, %3 ], [ null, %6 ], [ null, %20 ], [ %12, %21 ]
  ret ptr %.0
}